target datalayout = "e-m:e-p270:32:32-p271:32:32-p272:64:64-i64:64-i128:128-f80:128-n8:16:32:64-S128"
target triple = "x86_64-pc-linux-gnu"

; Function Attrs: inlinehint nounwind sspstrong willreturn memory(none) uwtable
define internal zeroext i1 @RB_NIL_P(i64 noundef %0) #8 {
  %2 = alloca i64, align 8
  store i64 %0, ptr %2, align 8, !tbaa !26
  %3 = load i64, ptr %2, align 8, !tbaa !26
  %4 = icmp eq i64 %3, 4
  ret i1 %4
}

; Function Attrs: nounwind sspstrong uwtable
define internal i64 @rand_random_number(i32 noundef %0, ptr noundef %1, i64 noundef %2) #0 {
  %4 = alloca i32, align 4
  %5 = alloca ptr, align 8
  %6 = alloca i64, align 8
  %7 = alloca ptr, align 8
  %8 = alloca i64, align 8
  store i32 %0, ptr %4, align 4, !tbaa !19
  store ptr %1, ptr %5, align 8, !tbaa !55
  store i64 %2, ptr %6, align 8, !tbaa !26
  call void @llvm.lifetime.start.p0(i64 8, ptr %7) #24
  %9 = load i64, ptr %6, align 8, !tbaa !26
  %10 = call ptr @try_get_rnd(i64 noundef %9)
  store ptr %10, ptr %7, align 8, !tbaa !24
  call void @llvm.lifetime.start.p0(i64 8, ptr %8) #24
  %11 = load i32, ptr %4, align 4, !tbaa !19
  %12 = load ptr, ptr %5, align 8, !tbaa !55
  %13 = load i64, ptr %6, align 8, !tbaa !26
  %14 = load ptr, ptr %7, align 8, !tbaa !24
  %15 = call i64 @rand_random(i32 noundef %11, ptr noundef %12, i64 noundef %13, ptr noundef %14)
  store i64 %15, ptr %8, align 8, !tbaa !26
  %16 = load i64, ptr %8, align 8, !tbaa !26
  %17 = call zeroext i1 @RB_NIL_P(i64 noundef %16) #28
  br i1 %17, label %18, label %22

18:                                               ; preds = %3
  %19 = load i64, ptr %6, align 8, !tbaa !26
  %20 = load ptr, ptr %7, align 8, !tbaa !24
  %21 = call i64 @rand_random(i32 noundef 0, ptr noundef null, i64 noundef %19, ptr noundef %20)
  store i64 %21, ptr %8, align 8, !tbaa !26
  br label %30

22:                                               ; preds = %3
  %23 = load i64, ptr %8, align 8, !tbaa !26
  %24 = icmp ne i64 %23, 0
  br i1 %24, label %29, label %25

25:                                               ; preds = %22
  %26 = load ptr, ptr %5, align 8, !tbaa !55
  %27 = getelementptr i64, ptr %26, i64 0
  %28 = load i64, ptr %27, align 8, !tbaa !26
  call void @invalid_argument(i64 noundef %28) #27
  unreachable

29:                                               ; preds = %22
  br label %30

30:                                               ; preds = %29, %18
  %31 = load i64, ptr %8, align 8, !tbaa !26
  call void @llvm.lifetime.end.p0(i64 8, ptr %8) #24
  call void @llvm.lifetime.end.p0(i64 8, ptr %7) #24
  ret i64 %31
}