; Function Attrs: nounwind sspstrong uwtable
define internal i64 @rand_random_number(i32 noundef %0, ptr noundef readonly captures(none) %1, i64 noundef %2) #0 {
  %4 = tail call fastcc ptr @try_get_rnd(i64 noundef %2)
  %5 = tail call fastcc i64 @rand_random(i32 noundef %0, ptr noundef %1, i64 noundef %2, ptr noundef %4)
  switch i64 %5, label %rand_random.exit [
    i64 4, label %6
    i64 0, label %22
  ]

6:                                                ; preds = %3
  %7 = tail call fastcc double @random_real(i64 noundef %2, ptr noundef %4, i32 noundef 1)
  %8 = bitcast double %7 to i64
  %cond.i.i = icmp eq i64 %8, 3458764513820540928
  br i1 %cond.i.i, label %20, label %9

9:                                                ; preds = %6
  %10 = lshr i64 %8, 60
  %11 = trunc nuw nsw i64 %10 to i32
  %12 = and i32 %11, 7
  %13 = add nsw i32 %12, -3
  %.not7.i.i = icmp ult i32 %13, 2
  br i1 %.not7.i.i, label %14, label %18

14:                                               ; preds = %9
  %15 = tail call noundef i64 @llvm.fshl.i64(i64 range(i64 3458764513820540929, 3458764513820540928) %8, i64 range(i64 3458764513820540929, 3458764513820540928) %8, i64 3)
  %16 = and i64 %15, -4
  %17 = or disjoint i64 %16, 2
  br label %rand_random.exit

18:                                               ; preds = %9
  %19 = icmp eq i64 %8, 0
  br i1 %19, label %rand_random.exit, label %20

20:                                               ; preds = %18, %6
  %21 = tail call i64 @rb_float_new_in_heap(double noundef %7) #23
  br label %rand_random.exit

22:                                               ; preds = %3
  %23 = load i64, ptr %1, align 8, !tbaa !43
  tail call fastcc void @invalid_argument(i64 noundef %23) #27
  unreachable

rand_random.exit:                                 ; preds = %3, %20, %18, %14
  %.0 = phi i64 [ %21, %20 ], [ %17, %14 ], [ -9223372036854775806, %18 ], [ %5, %3 ]
  ret i64 %.0
}